target datalayout = "e-m:e-p270:32:32-p271:32:32-p272:64:64-i64:64-i128:128-f80:128-n8:16:32:64-S128"
target triple = "x86_64-pc-linux-gnu"

%struct.PaUtilHostApiRepresentation = type { %struct.PaUtilPrivatePaFrontHostApiInfo, %struct.PaHostApiInfo, ptr, ptr, ptr, ptr }
%struct.PaUtilPrivatePaFrontHostApiInfo = type { i64 }
%struct.PaHostApiInfo = type { i32, i32, ptr, i32, i32, i32 }

@initializationCount_ = internal global i32 0, align 4
@hostApisCount_ = internal global i32 0, align 4
@hostApis_ = internal global ptr null, align 8

; Function Attrs: nounwind uwtable
define internal i32 @FindHostApi(i32 noundef %0, ptr noundef %1) #0 {
  %3 = alloca i32, align 4
  %4 = alloca i32, align 4
  %5 = alloca ptr, align 8
  %6 = alloca i32, align 4
  store i32 %0, ptr %4, align 4
  store ptr %1, ptr %5, align 8
  store i32 0, ptr %6, align 4
  %7 = load i32, ptr @initializationCount_, align 4
  %8 = icmp ne i32 %7, 0
  br i1 %8, label %10, label %9

9:                                                ; preds = %2
  store i32 -1, ptr %3, align 4
  br label %58

10:                                               ; preds = %2
  %11 = load i32, ptr %4, align 4
  %12 = icmp slt i32 %11, 0
  br i1 %12, label %13, label %14

13:                                               ; preds = %10
  store i32 -1, ptr %3, align 4
  br label %58

14:                                               ; preds = %10
  br label %15

15:                                               ; preds = %32, %14
  %16 = load i32, ptr %6, align 4
  %17 = load i32, ptr @hostApisCount_, align 4
  %18 = icmp slt i32 %16, %17
  br i1 %18, label %19, label %30

19:                                               ; preds = %15
  %20 = load i32, ptr %4, align 4
  %21 = load ptr, ptr @hostApis_, align 8
  %22 = load i32, ptr %6, align 4
  %23 = sext i32 %22 to i64
  %24 = getelementptr inbounds ptr, ptr %21, i64 %23
  %25 = load ptr, ptr %24, align 8
  %26 = getelementptr inbounds nuw %struct.PaUtilHostApiRepresentation, ptr %25, i32 0, i32 1
  %27 = getelementptr inbounds nuw %struct.PaHostApiInfo, ptr %26, i32 0, i32 3
  %28 = load i32, ptr %27, align 8
  %29 = icmp sge i32 %20, %28
  br label %30

30:                                               ; preds = %19, %15
  %31 = phi i1 [ false, %15 ], [ %29, %19 ]
  br i1 %31, label %32, label %45

32:                                               ; preds = %30
  %33 = load ptr, ptr @hostApis_, align 8
  %34 = load i32, ptr %6, align 4
  %35 = sext i32 %34 to i64
  %36 = getelementptr inbounds ptr, ptr %33, i64 %35
  %37 = load ptr, ptr %36, align 8
  %38 = getelementptr inbounds nuw %struct.PaUtilHostApiRepresentation, ptr %37, i32 0, i32 1
  %39 = getelementptr inbounds nuw %struct.PaHostApiInfo, ptr %38, i32 0, i32 3
  %40 = load i32, ptr %39, align 8
  %41 = load i32, ptr %4, align 4
  %42 = sub nsw i32 %41, %40
  store i32 %42, ptr %4, align 4
  %43 = load i32, ptr %6, align 4
  %44 = add nsw i32 %43, 1
  store i32 %44, ptr %6, align 4
  br label %15, !llvm.loop !10

45:                                               ; preds = %30
  %46 = load i32, ptr %6, align 4
  %47 = load i32, ptr @hostApisCount_, align 4
  %48 = icmp sge i32 %46, %47
  br i1 %48, label %49, label %50

49:                                               ; preds = %45
  store i32 -1, ptr %3, align 4
  br label %58

50:                                               ; preds = %45
  %51 = load ptr, ptr %5, align 8
  %52 = icmp ne ptr %51, null
  br i1 %52, label %53, label %56

53:                                               ; preds = %50
  %54 = load i32, ptr %4, align 4
  %55 = load ptr, ptr %5, align 8
  store i32 %54, ptr %55, align 4
  br label %56

56:                                               ; preds = %53, %50
  %57 = load i32, ptr %6, align 4
  store i32 %57, ptr %3, align 4
  br label %58

58:                                               ; preds = %56, %49, %13, %9
  %59 = load i32, ptr %3, align 4
  ret i32 %59
}

; Function Attrs: nounwind uwtable
define ptr @Pa_GetDeviceInfo(i32 noundef %0) #0 {
  %2 = alloca i32, align 4
  %3 = alloca i32, align 4
  %4 = alloca i32, align 4
  %5 = alloca ptr, align 8
  store i32 %0, ptr %2, align 4
  %6 = load i32, ptr %2, align 4
  %7 = call i32 @FindHostApi(i32 noundef %6, ptr noundef %3)
  store i32 %7, ptr %4, align 4
  %8 = load i32, ptr %4, align 4
  %9 = icmp slt i32 %8, 0
  br i1 %9, label %10, label %11

10:                                               ; preds = %1
  store ptr null, ptr %5, align 8
  br label %23

11:                                               ; preds = %1
  %12 = load ptr, ptr @hostApis_, align 8
  %13 = load i32, ptr %4, align 4
  %14 = sext i32 %13 to i64
  %15 = getelementptr inbounds ptr, ptr %12, i64 %14
  %16 = load ptr, ptr %15, align 8
  %17 = getelementptr inbounds nuw %struct.PaUtilHostApiRepresentation, ptr %16, i32 0, i32 2
  %18 = load ptr, ptr %17, align 8
  %19 = load i32, ptr %3, align 4
  %20 = sext i32 %19 to i64
  %21 = getelementptr inbounds ptr, ptr %18, i64 %20
  %22 = load ptr, ptr %21, align 8
  store ptr %22, ptr %5, align 8
  br label %23

23:                                               ; preds = %11, %10
  %24 = load ptr, ptr %5, align 8
  ret ptr %24
}