; Function Attrs: nofree norecurse nosync nounwind memory(read, inaccessiblemem: none) uwtable
define ptr @Pa_GetDeviceInfo(i32 noundef %0) local_unnamed_addr #5 {
  %2 = load i32, ptr @initializationCount_, align 4
  %.not.i = icmp eq i32 %2, 0
  %3 = icmp slt i32 %0, 0
  %or.cond.i = or i1 %3, %.not.i
  br i1 %or.cond.i, label %FindHostApi.exit.thread, label %.preheader.i

.preheader.i:                                     ; preds = %1
  %4 = load i32, ptr @hostApisCount_, align 4
  %5 = icmp sgt i32 %4, 0
  br i1 %5, label %.lr.ph.i, label %FindHostApi.exit.thread

.lr.ph.i:                                         ; preds = %.preheader.i
  %6 = load ptr, ptr @hostApis_, align 8
  %wide.trip.count.i = zext nneg i32 %4 to i64
  br label %7

7:                                                ; preds = %12, %.lr.ph.i
  %indvars.iv.i = phi i64 [ 0, %.lr.ph.i ], [ %indvars.iv.next.i, %12 ]
  %.01321.i = phi i32 [ %0, %.lr.ph.i ], [ %13, %12 ]
  %8 = getelementptr inbounds ptr, ptr %6, i64 %indvars.iv.i
  %9 = load ptr, ptr %8, align 8
  %10 = getelementptr inbounds i8, ptr %9, i64 24
  %11 = load i32, ptr %10, align 8
  %.not17.i = icmp slt i32 %.01321.i, %11
  br i1 %.not17.i, label %FindHostApi.exit, label %12

12:                                               ; preds = %7
  %13 = sub nsw i32 %.01321.i, %11
  %indvars.iv.next.i = add nuw nsw i64 %indvars.iv.i, 1
  %exitcond.not.i = icmp eq i64 %indvars.iv.next.i, %wide.trip.count.i
  br i1 %exitcond.not.i, label %FindHostApi.exit.thread, label %7, !llvm.loop !12

FindHostApi.exit:                                 ; preds = %7
  %14 = and i64 %indvars.iv.i, 4294967295
  %15 = getelementptr inbounds ptr, ptr %6, i64 %14
  %16 = load ptr, ptr %15, align 8
  %17 = getelementptr inbounds nuw i8, ptr %16, i64 40
  %18 = load ptr, ptr %17, align 8
  %19 = sext i32 %.01321.i to i64
  %20 = getelementptr inbounds ptr, ptr %18, i64 %19
  %21 = load ptr, ptr %20, align 8
  br label %FindHostApi.exit.thread

FindHostApi.exit.thread:                          ; preds = %12, %.preheader.i, %1, %FindHostApi.exit
  %.0 = phi ptr [ %21, %FindHostApi.exit ], [ null, %1 ], [ null, %.preheader.i ], [ null, %12 ]
  ret ptr %.0
}